target datalayout = "e-m:e-p270:32:32-p271:32:32-p272:64:64-i64:64-i128:128-f80:128-n8:16:32:64-S128"
target triple = "x86_64-pc-linux-gnu"

@.str.10 = private unnamed_addr constant [27 x i8] c"ggml_backend_set_n_threads\00", align 1
@.str.11 = private unnamed_addr constant [33 x i8] c"ggml_backend_dev_get_extra_bufts\00", align 1
@.str.12 = private unnamed_addr constant [26 x i8] c"ggml_backend_get_features\00", align 1
@.str.13 = private unnamed_addr constant [32 x i8] c"ggml_backend_set_abort_callback\00", align 1
@.str.14 = private unnamed_addr constant [27 x i8] c"ggml_backend_cpu_numa_init\00", align 1
@.str.15 = private unnamed_addr constant [25 x i8] c"ggml_backend_cpu_is_numa\00", align 1
@.str.16 = private unnamed_addr constant [20 x i8] c"ggml_threadpool_new\00", align 1
@.str.17 = private unnamed_addr constant [21 x i8] c"ggml_threadpool_free\00", align 1
@.str.18 = private unnamed_addr constant [32 x i8] c"ggml_backend_cpu_set_threadpool\00", align 1

; Function Attrs: mustprogress nounwind uwtable
define internal noundef ptr @_ZL33ggml_backend_cpu_get_proc_addressP16ggml_backend_regPKc(ptr noundef %0, ptr noundef %1) #4 {
  %3 = alloca ptr, align 8
  %4 = alloca ptr, align 8
  %5 = alloca ptr, align 8
  %6 = alloca ptr, align 8
  %7 = alloca ptr, align 8
  store ptr %0, ptr %4, align 8, !tbaa !89
  store ptr %1, ptr %5, align 8, !tbaa !32
  %8 = load ptr, ptr %5, align 8, !tbaa !32
  %9 = call i32 @strcmp(ptr noundef %8, ptr noundef @.str.10) #19
  %10 = icmp eq i32 %9, 0
  br i1 %10, label %11, label %13

11:                                               ; preds = %2
  call void @llvm.lifetime.start.p0(i64 8, ptr %6) #1
  store ptr @ggml_backend_cpu_set_n_threads, ptr %6, align 8, !tbaa !5
  %12 = load ptr, ptr %6, align 8, !tbaa !5
  store ptr %12, ptr %3, align 8
  call void @llvm.lifetime.end.p0(i64 8, ptr %6) #1
  br label %55

13:                                               ; preds = %2
  %14 = load ptr, ptr %5, align 8, !tbaa !32
  %15 = call i32 @strcmp(ptr noundef %14, ptr noundef @.str.11) #19
  %16 = icmp eq i32 %15, 0
  br i1 %16, label %17, label %19

17:                                               ; preds = %13
  call void @llvm.lifetime.start.p0(i64 8, ptr %7) #1
  store ptr @_ZL46ggml_backend_cpu_device_get_extra_buffers_typeP19ggml_backend_device, ptr %7, align 8, !tbaa !5
  %18 = load ptr, ptr %7, align 8, !tbaa !5
  store ptr %18, ptr %3, align 8
  call void @llvm.lifetime.end.p0(i64 8, ptr %7) #1
  br label %55

19:                                               ; preds = %13
  %20 = load ptr, ptr %5, align 8, !tbaa !32
  %21 = call i32 @strcmp(ptr noundef %20, ptr noundef @.str.12) #19
  %22 = icmp eq i32 %21, 0
  br i1 %22, label %23, label %24

23:                                               ; preds = %19
  store ptr @_ZL29ggml_backend_cpu_get_featuresP16ggml_backend_reg, ptr %3, align 8
  br label %55

24:                                               ; preds = %19
  %25 = load ptr, ptr %5, align 8, !tbaa !32
  %26 = call i32 @strcmp(ptr noundef %25, ptr noundef @.str.13) #19
  %27 = icmp eq i32 %26, 0
  br i1 %27, label %28, label %29

28:                                               ; preds = %24
  store ptr @ggml_backend_cpu_set_abort_callback, ptr %3, align 8
  br label %55

29:                                               ; preds = %24
  %30 = load ptr, ptr %5, align 8, !tbaa !32
  %31 = call i32 @strcmp(ptr noundef %30, ptr noundef @.str.14) #19
  %32 = icmp eq i32 %31, 0
  br i1 %32, label %33, label %34

33:                                               ; preds = %29
  store ptr @ggml_numa_init, ptr %3, align 8
  br label %55

34:                                               ; preds = %29
  %35 = load ptr, ptr %5, align 8, !tbaa !32
  %36 = call i32 @strcmp(ptr noundef %35, ptr noundef @.str.15) #19
  %37 = icmp eq i32 %36, 0
  br i1 %37, label %38, label %39

38:                                               ; preds = %34
  store ptr @ggml_is_numa, ptr %3, align 8
  br label %55

39:                                               ; preds = %34
  %40 = load ptr, ptr %5, align 8, !tbaa !32
  %41 = call i32 @strcmp(ptr noundef %40, ptr noundef @.str.16) #19
  %42 = icmp eq i32 %41, 0
  br i1 %42, label %43, label %44

43:                                               ; preds = %39
  store ptr @ggml_threadpool_new, ptr %3, align 8
  br label %55

44:                                               ; preds = %39
  %45 = load ptr, ptr %5, align 8, !tbaa !32
  %46 = call i32 @strcmp(ptr noundef %45, ptr noundef @.str.17) #19
  %47 = icmp eq i32 %46, 0
  br i1 %47, label %48, label %49

48:                                               ; preds = %44
  store ptr @ggml_threadpool_free, ptr %3, align 8
  br label %55

49:                                               ; preds = %44
  %50 = load ptr, ptr %5, align 8, !tbaa !32
  %51 = call i32 @strcmp(ptr noundef %50, ptr noundef @.str.18) #19
  %52 = icmp eq i32 %51, 0
  br i1 %52, label %53, label %54

53:                                               ; preds = %49
  store ptr @ggml_backend_cpu_set_threadpool, ptr %3, align 8
  br label %55

54:                                               ; preds = %49
  store ptr null, ptr %3, align 8
  br label %55

55:                                               ; preds = %54, %53, %48, %43, %38, %33, %28, %23, %17, %11
  %56 = load ptr, ptr %3, align 8
  ret ptr %56
}