; Function Attrs: mustprogress nofree nounwind willreturn memory(argmem: read) uwtable
define internal noundef ptr @_ZL33ggml_backend_cpu_get_proc_addressP16ggml_backend_regPKc(ptr readnone captures(none) %0, ptr noundef readonly captures(none) %1) #13 {
  %3 = tail call i32 @strcmp(ptr noundef nonnull dereferenceable(1) %1, ptr noundef nonnull dereferenceable(27) @.str.10) #30
  %4 = icmp eq i32 %3, 0
  br i1 %4, label %29, label %5

5:                                                ; preds = %2
  %6 = tail call i32 @strcmp(ptr noundef nonnull dereferenceable(1) %1, ptr noundef nonnull dereferenceable(33) @.str.11) #30
  %7 = icmp eq i32 %6, 0
  br i1 %7, label %29, label %8

8:                                                ; preds = %5
  %9 = tail call i32 @strcmp(ptr noundef nonnull dereferenceable(1) %1, ptr noundef nonnull dereferenceable(26) @.str.12) #30
  %10 = icmp eq i32 %9, 0
  br i1 %10, label %29, label %11

11:                                               ; preds = %8
  %12 = tail call i32 @strcmp(ptr noundef nonnull dereferenceable(1) %1, ptr noundef nonnull dereferenceable(32) @.str.13) #30
  %13 = icmp eq i32 %12, 0
  br i1 %13, label %29, label %14

14:                                               ; preds = %11
  %15 = tail call i32 @strcmp(ptr noundef nonnull dereferenceable(1) %1, ptr noundef nonnull dereferenceable(27) @.str.14) #30
  %16 = icmp eq i32 %15, 0
  br i1 %16, label %29, label %17

17:                                               ; preds = %14
  %18 = tail call i32 @strcmp(ptr noundef nonnull dereferenceable(1) %1, ptr noundef nonnull dereferenceable(25) @.str.15) #30
  %19 = icmp eq i32 %18, 0
  br i1 %19, label %29, label %20

20:                                               ; preds = %17
  %21 = tail call i32 @strcmp(ptr noundef nonnull dereferenceable(1) %1, ptr noundef nonnull dereferenceable(20) @.str.16) #30
  %22 = icmp eq i32 %21, 0
  br i1 %22, label %29, label %23

23:                                               ; preds = %20
  %24 = tail call i32 @strcmp(ptr noundef nonnull dereferenceable(1) %1, ptr noundef nonnull dereferenceable(21) @.str.17) #30
  %25 = icmp eq i32 %24, 0
  br i1 %25, label %29, label %26

26:                                               ; preds = %23
  %27 = tail call i32 @strcmp(ptr noundef nonnull dereferenceable(1) %1, ptr noundef nonnull dereferenceable(32) @.str.18) #30
  %28 = icmp eq i32 %27, 0
  %ggml_backend_cpu_set_threadpool. = select i1 %28, ptr @ggml_backend_cpu_set_threadpool, ptr null
  br label %29

29:                                               ; preds = %26, %23, %20, %17, %14, %11, %8, %5, %2
  %.0 = phi ptr [ @ggml_backend_cpu_set_n_threads, %2 ], [ @_ZL46ggml_backend_cpu_device_get_extra_buffers_typeP19ggml_backend_device, %5 ], [ @_ZL29ggml_backend_cpu_get_featuresP16ggml_backend_reg, %8 ], [ @ggml_backend_cpu_set_abort_callback, %11 ], [ @ggml_numa_init, %14 ], [ @ggml_is_numa, %17 ], [ @ggml_threadpool_new, %20 ], [ @ggml_threadpool_free, %23 ], [ %ggml_backend_cpu_set_threadpool., %26 ]
  ret ptr %.0
}